target datalayout = "e-m:e-p270:32:32-p271:32:32-p272:64:64-i64:64-i128:128-f80:128-n8:16:32:64-S128"
target triple = "x86_64-pc-linux-gnu"

%"class.llvm::StringRef" = type { ptr, i64 }
%"class.llvm::SmallVectorBase" = type { ptr, i32, i32 }
%"struct.llvm::cl::GenericOptionValue" = type { ptr }
%"struct.llvm::cl::OptionValue.15" = type { %"struct.llvm::cl::OptionValueBase.base.19", [3 x i8] }
%"struct.llvm::cl::OptionValueBase.base.19" = type { %"class.llvm::cl::OptionValueCopy.base.18" }
%"class.llvm::cl::OptionValueCopy.base.18" = type <{ %"struct.llvm::cl::GenericOptionValue", i32, i8 }>
%"class.llvm::cl::parser.21" = type { %"class.llvm::cl::generic_parser_base", %"class.llvm::SmallVector.22" }
%"class.llvm::cl::generic_parser_base" = type { ptr, ptr }
%"class.llvm::SmallVector.22" = type { %"class.llvm::SmallVectorImpl.23", %"struct.llvm::SmallVectorStorage.26" }
%"class.llvm::SmallVectorImpl.23" = type { %"class.llvm::SmallVectorTemplateBase.24" }
%"class.llvm::SmallVectorTemplateBase.24" = type { %"class.llvm::SmallVectorTemplateCommon.25" }
%"class.llvm::SmallVectorTemplateCommon.25" = type { %"class.llvm::SmallVectorBase" }
%"struct.llvm::SmallVectorStorage.26" = type { [384 x i8] }
%"class.llvm::cl::generic_parser_base::GenericOptionInfo" = type { %"class.llvm::StringRef", %"class.llvm::StringRef" }
%"class.llvm::cl::parser<(anonymous namespace)::Level>::OptionInfo" = type { %"class.llvm::cl::generic_parser_base::GenericOptionInfo", %"struct.llvm::cl::OptionValue.15" }

; Function Attrs: mustprogress nounwind uwtable
define internal noundef ptr @_ZNK4llvm25SmallVectorTemplateCommonINS_2cl6parserIN12_GLOBAL__N_15LevelEE10OptionInfoEvE10getFirstElEv(ptr noundef nonnull align 8 dereferenceable(16) %0) #1 align 2 {
  %2 = alloca ptr, align 8
  store ptr %0, ptr %2, align 8
  %3 = load ptr, ptr %2, align 8
  %4 = getelementptr inbounds i8, ptr %3, i64 16
  ret ptr %4
}

; Function Attrs: mustprogress nounwind uwtable
define internal noundef zeroext i1 @_ZNK4llvm25SmallVectorTemplateCommonINS_2cl6parserIN12_GLOBAL__N_15LevelEE10OptionInfoEvE7isSmallEv(ptr noundef nonnull align 8 dereferenceable(16) %0) #1 align 2 {
  %2 = alloca ptr, align 8
  store ptr %0, ptr %2, align 8
  %3 = load ptr, ptr %2, align 8
  %4 = getelementptr inbounds nuw %"class.llvm::SmallVectorBase", ptr %3, i32 0, i32 0
  %5 = load ptr, ptr %4, align 8
  %6 = call noundef ptr @_ZNK4llvm25SmallVectorTemplateCommonINS_2cl6parserIN12_GLOBAL__N_15LevelEE10OptionInfoEvE10getFirstElEv(ptr noundef nonnull align 8 dereferenceable(16) %3)
  %7 = icmp eq ptr %5, %6
  ret i1 %7
}

; Function Attrs: mustprogress nounwind uwtable
define internal void @_ZN4llvm15SmallVectorImplINS_2cl6parserIN12_GLOBAL__N_15LevelEE10OptionInfoEED2Ev(ptr noundef nonnull align 8 dereferenceable(16) %0) unnamed_addr #1 align 2 {
  %2 = alloca ptr, align 8
  store ptr %0, ptr %2, align 8
  %3 = load ptr, ptr %2, align 8
  %4 = call noundef zeroext i1 @_ZNK4llvm25SmallVectorTemplateCommonINS_2cl6parserIN12_GLOBAL__N_15LevelEE10OptionInfoEvE7isSmallEv(ptr noundef nonnull align 8 dereferenceable(16) %3)
  br i1 %4, label %7, label %5

5:                                                ; preds = %1
  %6 = call noundef ptr @_ZN4llvm25SmallVectorTemplateCommonINS_2cl6parserIN12_GLOBAL__N_15LevelEE10OptionInfoEvE5beginEv(ptr noundef nonnull align 8 dereferenceable(16) %3)
  call void @free(ptr noundef %6) #2
  br label %7

7:                                                ; preds = %5, %1
  ret void
}

; Function Attrs: mustprogress nounwind uwtable
define internal void @_ZN4llvm23SmallVectorTemplateBaseINS_2cl6parserIN12_GLOBAL__N_15LevelEE10OptionInfoELb0EE13destroy_rangeEPS6_S8_(ptr noundef %0, ptr noundef %1) #1 align 2 {
  %3 = alloca ptr, align 8
  %4 = alloca ptr, align 8
  store ptr %0, ptr %3, align 8
  store ptr %1, ptr %4, align 8
  br label %5

5:                                                ; preds = %9, %2
  %6 = load ptr, ptr %3, align 8
  %7 = load ptr, ptr %4, align 8
  %8 = icmp ne ptr %6, %7
  br i1 %8, label %9, label %12

9:                                                ; preds = %5
  %10 = load ptr, ptr %4, align 8
  %11 = getelementptr inbounds %"class.llvm::cl::parser<(anonymous namespace)::Level>::OptionInfo", ptr %10, i32 -1
  store ptr %11, ptr %4, align 8
  br label %5, !llvm.loop !6

12:                                               ; preds = %5
  ret void
}

; Function Attrs: mustprogress nounwind uwtable
define internal noundef ptr @_ZN4llvm25SmallVectorTemplateCommonINS_2cl6parserIN12_GLOBAL__N_15LevelEE10OptionInfoEvE3endEv(ptr noundef nonnull align 8 dereferenceable(16) %0) #1 align 2 {
  %2 = alloca ptr, align 8
  store ptr %0, ptr %2, align 8
  %3 = load ptr, ptr %2, align 8
  %4 = call noundef ptr @_ZN4llvm25SmallVectorTemplateCommonINS_2cl6parserIN12_GLOBAL__N_15LevelEE10OptionInfoEvE5beginEv(ptr noundef nonnull align 8 dereferenceable(16) %3)
  %5 = call noundef i64 @_ZNK4llvm15SmallVectorBaseIjE4sizeEv(ptr noundef nonnull align 8 dereferenceable(16) %3)
  %6 = getelementptr inbounds %"class.llvm::cl::parser<(anonymous namespace)::Level>::OptionInfo", ptr %4, i64 %5
  ret ptr %6
}

; Function Attrs: mustprogress nounwind uwtable
define internal noundef ptr @_ZN4llvm25SmallVectorTemplateCommonINS_2cl6parserIN12_GLOBAL__N_15LevelEE10OptionInfoEvE5beginEv(ptr noundef nonnull align 8 dereferenceable(16) %0) #1 align 2 {
  %2 = alloca ptr, align 8
  store ptr %0, ptr %2, align 8
  %3 = load ptr, ptr %2, align 8
  %4 = getelementptr inbounds nuw %"class.llvm::SmallVectorBase", ptr %3, i32 0, i32 0
  %5 = load ptr, ptr %4, align 8
  ret ptr %5
}

; Function Attrs: mustprogress nounwind uwtable
define linkonce_odr hidden void @_ZN4llvm2cl19generic_parser_baseD2Ev(ptr noundef nonnull align 8 dereferenceable(16) %0) unnamed_addr #1 comdat align 2 {
  %2 = alloca ptr, align 8
  store ptr %0, ptr %2, align 8
  ret void
}

; Function Attrs: mustprogress nounwind uwtable
define internal void @_ZN4llvm11SmallVectorINS_2cl6parserIN12_GLOBAL__N_15LevelEE10OptionInfoELj8EED2Ev(ptr noundef nonnull align 8 dereferenceable(400) %0) unnamed_addr #1 align 2 {
  %2 = alloca ptr, align 8
  store ptr %0, ptr %2, align 8
  %3 = load ptr, ptr %2, align 8
  %4 = call noundef ptr @_ZN4llvm25SmallVectorTemplateCommonINS_2cl6parserIN12_GLOBAL__N_15LevelEE10OptionInfoEvE5beginEv(ptr noundef nonnull align 8 dereferenceable(16) %3)
  %5 = call noundef ptr @_ZN4llvm25SmallVectorTemplateCommonINS_2cl6parserIN12_GLOBAL__N_15LevelEE10OptionInfoEvE3endEv(ptr noundef nonnull align 8 dereferenceable(16) %3)
  call void @_ZN4llvm23SmallVectorTemplateBaseINS_2cl6parserIN12_GLOBAL__N_15LevelEE10OptionInfoELb0EE13destroy_rangeEPS6_S8_(ptr noundef %4, ptr noundef %5)
  call void @_ZN4llvm15SmallVectorImplINS_2cl6parserIN12_GLOBAL__N_15LevelEE10OptionInfoEED2Ev(ptr noundef nonnull align 8 dereferenceable(16) %3) #2
  ret void
}

; Function Attrs: mustprogress nounwind uwtable
define internal void @_ZN4llvm2cl6parserIN12_GLOBAL__N_15LevelEED2Ev(ptr noundef nonnull align 8 dereferenceable(416) %0) unnamed_addr #1 align 2 {
  %2 = alloca ptr, align 8
  store ptr %0, ptr %2, align 8
  %3 = load ptr, ptr %2, align 8
  store ptr getelementptr inbounds inrange(-16, 64) ({ [10 x ptr] }, ptr @_ZTVN4llvm2cl6parserIN12_GLOBAL__N_15LevelEEE, i32 0, i32 0, i32 2), ptr %3, align 8
  %4 = getelementptr inbounds nuw %"class.llvm::cl::parser.21", ptr %3, i32 0, i32 1
  call void @_ZN4llvm11SmallVectorINS_2cl6parserIN12_GLOBAL__N_15LevelEE10OptionInfoELj8EED2Ev(ptr noundef nonnull align 8 dereferenceable(400) %4) #2
  call void @_ZN4llvm2cl19generic_parser_baseD2Ev(ptr noundef nonnull align 8 dereferenceable(16) %3) #2
  ret void
}